Certificate:
    Data:
        Version: 1 (0x0)
        Serial Number: 1 (0x1)
        Signature Algorithm: sha1WithRSAEncryption
        Issuer: C=FR, ST=France, L=Brest, O=TELECOM Bretagne, CN=Campagnol CA
        Validity
            Not Before: Apr 20 23:10:41 2008 GMT
            Not After : Apr 18 23:10:41 2018 GMT
        Subject: C=FR, ST=France, O=TELECOM Bretagne, CN=Box Campagnol cert1
        Subject Public Key Info:
            Public Key Algorithm: rsaEncryption
            RSA Public Key: (1024 bit)
                Modulus (1024 bit):
                    00:cd:80:af:38:ae:ee:ec:00:7a:97:cf:2f:13:19:
                    ea:11:fc:76:51:c6:e9:66:a1:07:c9:fd:99:a4:1d:
                    47:b9:a7:54:c4:ad:c0:66:dc:a0:fd:54:30:33:19:
                    44:0c:88:3b:62:6f:90:f5:81:47:3f:8d:e0:ec:6e:
                    eb:55:2b:b8:93:aa:75:e8:72:10:b1:ff:e9:20:5e:
                    de:e0:61:14:fe:7d:6a:74:c3:9b:36:e7:4e:5a:d2:
                    ca:5b:f1:f0:31:56:e6:ec:9a:bd:fc:da:ec:06:e9:
                    62:51:f8:bb:28:64:08:68:b7:cb:ec:cf:b8:65:00:
                    4f:92:c0:f4:e8:e2:9c:1e:87
                Exponent: 65537 (0x10001)
    Signature Algorithm: sha1WithRSAEncryption
        b3:7a:67:91:05:4a:8d:4d:27:bb:f4:75:fb:7b:92:2c:03:1a:
        b5:05:7a:e4:44:a0:f1:77:7b:9d:60:44:59:6a:f0:3d:90:fd:
        33:e3:9b:2d:3c:34:dc:ae:ef:3a:dd:58:c0:cc:df:34:c0:f1:
        2c:6f:70:10:ca:fd:66:07:37:79:81:71:08:7e:4e:67:75:66:
        65:ae:94:d8:fb:4f:43:fd:2e:99:f1:00:c3:61:f8:fd:66:34:
        3c:d3:13:00:ac:5a:0a:72:d5:4b:96:1b:42:79:b3:c8:05:19:
        31:84:30:5f:8f:f4:2d:4c:39:d4:d4:cb:a0:00:c6:f8:fc:e2:
        16:83
-----BEGIN CERTIFICATE-----
MIICJjCCAY8CAQEwDQYJKoZIhvcNAQEFBQAwYDELMAkGA1UEBhMCRlIxDzANBgNV
BAgTBkZyYW5jZTEOMAwGA1UEBxMFQnJlc3QxGTAXBgNVBAoTEFRFTEVDT00gQnJl
dGFnbmUxFTATBgNVBAMTDENhbXBhZ25vbCBDQTAeFw0wODA0MjAyMzEwNDFaFw0x
ODA0MTgyMzEwNDFaMFcxCzAJBgNVBAYTAkZSMQ8wDQYDVQQIEwZGcmFuY2UxGTAX
BgNVBAoTEFRFTEVDT00gQnJldGFnbmUxHDAaBgNVBAMTE0JveCBDYW1wYWdub2wg
Y2VydDEwgZ8wDQYJKoZIhvcNAQEBBQADgY0AMIGJAoGBAM2Arziu7uwAepfPLxMZ
6hH8dlHG6WahB8n9maQdR7mnVMStwGbcoP1UMDMZRAyIO2JvkPWBRz+N4Oxu61Ur
uJOqdehyELH/6SBe3uBhFP59anTDmzbnTlrSylvx8DFW5uyavfza7AbpYlH4uyhk
CGi3y+zPuGUAT5LA9OjinB6HAgMBAAEwDQYJKoZIhvcNAQEFBQADgYEAs3pnkQVK
jU0nu/R1+3uSLAMatQV65ESg8Xd7nWBEWWrwPZD9M+ObLTw03K7vOt1YwMzfNMDx
LG9wEMr9Zgc3eYFxCH5OZ3VmZa6U2PtPQ/0umfEAw2H4/WY0PNMTAKxaCnLVS5Yb
QnmzyAUZMYQwX4/0LUw51NTLoADG+PziFoM=
-----END CERTIFICATE-----
