Certificate:
    Data:
        Version: 1 (0x0)
        Serial Number: 2 (0x2)
        Signature Algorithm: sha1WithRSAEncryption
        Issuer: C=FR, ST=France, L=Brest, O=TELECOM Bretagne, CN=Campagnol CA
        Validity
            Not Before: Apr 20 23:11:04 2008 GMT
            Not After : Apr 18 23:11:04 2018 GMT
        Subject: C=FR, ST=France, O=TELECOM Bretagne, CN=Box Campagnol cert2
        Subject Public Key Info:
            Public Key Algorithm: rsaEncryption
            RSA Public Key: (1024 bit)
                Modulus (1024 bit):
                    00:d7:16:e3:ba:ad:4e:b8:a5:d6:27:f1:94:81:2a:
                    b3:4a:b1:71:9e:4e:50:3b:71:6a:8f:bc:f8:49:ae:
                    13:44:fe:23:74:73:7f:b5:9a:cd:5d:4c:05:e8:45:
                    4f:1e:38:7e:c7:bc:20:76:20:10:de:bb:39:c3:cc:
                    3a:b2:3f:13:fd:56:d4:94:c6:c3:0e:b7:8a:b0:5b:
                    28:e6:15:05:56:7b:24:86:c2:e9:5b:cb:4c:d4:5e:
                    45:ef:d2:38:23:5c:22:cc:01:6b:25:14:33:6a:c7:
                    ae:39:9d:05:0e:d2:75:ad:c1:17:cd:47:13:c1:53:
                    b2:c6:cc:46:10:8d:ce:97:df
                Exponent: 65537 (0x10001)
    Signature Algorithm: sha1WithRSAEncryption
        1d:f5:bf:3a:41:70:3f:83:3d:ec:f3:86:18:e0:36:df:f5:ae:
        ff:bc:3f:00:04:88:f4:b7:a6:ad:d7:f6:28:bf:e1:52:29:21:
        d5:09:bc:24:c6:d9:35:d0:b6:82:a3:0c:a3:c9:4f:3e:23:5a:
        1d:9a:e4:2a:58:53:40:29:8a:c0:af:8f:5a:ff:ba:09:76:d7:
        e5:e7:85:f1:77:d5:d7:76:a7:8d:6e:f3:ff:bb:4b:d9:97:4a:
        77:fa:e9:58:b1:69:56:51:32:6e:72:7d:a2:97:99:f5:7f:d4:
        f7:54:94:61:b6:4e:5a:55:cf:ea:9f:7b:11:ee:1a:4e:a7:57:
        d3:43
-----BEGIN CERTIFICATE-----
MIICJjCCAY8CAQIwDQYJKoZIhvcNAQEFBQAwYDELMAkGA1UEBhMCRlIxDzANBgNV
BAgTBkZyYW5jZTEOMAwGA1UEBxMFQnJlc3QxGTAXBgNVBAoTEFRFTEVDT00gQnJl
dGFnbmUxFTATBgNVBAMTDENhbXBhZ25vbCBDQTAeFw0wODA0MjAyMzExMDRaFw0x
ODA0MTgyMzExMDRaMFcxCzAJBgNVBAYTAkZSMQ8wDQYDVQQIEwZGcmFuY2UxGTAX
BgNVBAoTEFRFTEVDT00gQnJldGFnbmUxHDAaBgNVBAMTE0JveCBDYW1wYWdub2wg
Y2VydDIwgZ8wDQYJKoZIhvcNAQEBBQADgY0AMIGJAoGBANcW47qtTril1ifxlIEq
s0qxcZ5OUDtxao+8+EmuE0T+I3Rzf7WazV1MBehFTx44fse8IHYgEN67OcPMOrI/
E/1W1JTGww63irBbKOYVBVZ7JIbC6VvLTNReRe/SOCNcIswBayUUM2rHrjmdBQ7S
da3BF81HE8FTssbMRhCNzpffAgMBAAEwDQYJKoZIhvcNAQEFBQADgYEAHfW/OkFw
P4M97POGGOA23/Wu/7w/AASI9Lemrdf2KL/hUikh1Qm8JMbZNdC2gqMMo8lPPiNa
HZrkKlhTQCmKwK+PWv+6CXbX5eeF8XfV13anjW7z/7tL2ZdKd/rpWLFpVlEybnJ9
opeZ9X/U91SUYbZOWlXP6p97Ee4aTqdX00M=
-----END CERTIFICATE-----
