Certificate:
    Data:
        Version: 1 (0x0)
        Serial Number: 3 (0x3)
        Signature Algorithm: sha1WithRSAEncryption
        Issuer: C=FR, ST=France, L=Brest, O=TELECOM Bretagne, CN=Campagnol CA
        Validity
            Not Before: Apr 20 23:13:19 2008 GMT
            Not After : Apr 18 23:13:19 2018 GMT
        Subject: C=FR, ST=France, O=TELECOM Bretagne, CN=Box Campagnol cert_revoke
        Subject Public Key Info:
            Public Key Algorithm: rsaEncryption
            RSA Public Key: (1024 bit)
                Modulus (1024 bit):
                    00:b4:93:ee:9a:4e:69:9c:d1:07:b2:b9:34:46:ed:
                    c7:b3:4f:69:1e:86:64:44:c3:cc:eb:a6:05:74:af:
                    d7:29:0e:12:2f:ee:55:6e:a2:5e:1c:a6:9b:6b:e2:
                    c9:df:c3:b3:ab:e4:8b:aa:2c:54:89:0d:f7:43:bc:
                    55:13:ff:fb:54:05:32:f5:74:93:ba:d7:8f:e1:63:
                    f7:ca:b1:48:ae:0e:06:9d:c4:cb:65:34:16:bc:8b:
                    13:a2:13:58:c5:86:3b:b2:7b:a9:68:c3:9f:4a:bd:
                    73:64:99:c7:de:e2:40:ed:8e:e6:7a:3b:c2:69:d2:
                    4a:6c:7e:9e:56:c5:01:c7:a7
                Exponent: 65537 (0x10001)
    Signature Algorithm: sha1WithRSAEncryption
        6c:db:83:b0:5e:91:82:40:1a:91:82:12:37:be:23:d7:c2:ba:
        db:13:4a:1b:66:47:53:cc:2a:30:a0:5d:4a:d1:97:60:44:cb:
        e2:e8:04:12:e9:19:84:e7:25:8f:22:a1:bd:5f:ea:9e:3a:6f:
        dd:6f:e1:4a:1b:dc:2c:9e:0f:8a:30:6e:dd:e5:66:30:3e:fd:
        5c:2d:2b:e6:0c:f2:ad:76:55:bb:11:16:7c:54:fd:03:ab:2f:
        12:e7:91:9e:63:b0:57:62:4d:e3:7d:eb:76:9e:b0:65:9e:43:
        67:8f:13:16:8a:ea:f1:76:65:f1:37:a3:2b:6e:63:56:c8:ce:
        c2:ac
-----BEGIN CERTIFICATE-----
MIICLDCCAZUCAQMwDQYJKoZIhvcNAQEFBQAwYDELMAkGA1UEBhMCRlIxDzANBgNV
BAgTBkZyYW5jZTEOMAwGA1UEBxMFQnJlc3QxGTAXBgNVBAoTEFRFTEVDT00gQnJl
dGFnbmUxFTATBgNVBAMTDENhbXBhZ25vbCBDQTAeFw0wODA0MjAyMzEzMTlaFw0x
ODA0MTgyMzEzMTlaMF0xCzAJBgNVBAYTAkZSMQ8wDQYDVQQIEwZGcmFuY2UxGTAX
BgNVBAoTEFRFTEVDT00gQnJldGFnbmUxIjAgBgNVBAMUGUJveCBDYW1wYWdub2wg
Y2VydF9yZXZva2UwgZ8wDQYJKoZIhvcNAQEBBQADgY0AMIGJAoGBALST7ppOaZzR
B7K5NEbtx7NPaR6GZETDzOumBXSv1ykOEi/uVW6iXhymm2viyd/Ds6vki6osVIkN
90O8VRP/+1QFMvV0k7rXj+Fj98qxSK4OBp3Ey2U0FryLE6ITWMWGO7J7qWjDn0q9
c2SZx97iQO2O5no7wmnSSmx+nlbFAcenAgMBAAEwDQYJKoZIhvcNAQEFBQADgYEA
bNuDsF6RgkAakYISN74j18K62xNKG2ZHU8wqMKBdStGXYETL4ugEEukZhOcljyKh
vV/qnjpv3W/hShvcLJ4PijBu3eVmMD79XC0r5gzyrXZVuxEWfFT9A6svEueRnmOw
V2JN433rdp6wZZ5DZ48TForq8XZl8TejK25jVsjOwqw=
-----END CERTIFICATE-----
